target datalayout = "e-m:e-p270:32:32-p271:32:32-p272:64:64-i64:64-i128:128-f80:128-n8:16:32:64-S128"
target triple = "x86_64-pc-linux-gnu"

%struct.StepRequest = type { i32, i32, i8, i8, i8, i32, i32, ptr, ptr, i32, ptr, ptr, ptr, ptr }
%struct.BackendGlobalData = type <{ ptr, ptr, i8, i8, i8, i8, i8, i8, i8, i8, i8, [3 x i8], i32, ptr, ptr, ptr, ptr, ptr, ptr, ptr, ptr, ptr, ptr, ptr, ptr, ptr, i32, %struct.jvmtiCapabilities, i8, [3 x i8], %struct.jvmtiEventCallbacks, ptr, ptr, ptr, ptr, ptr, ptr, ptr, i32, [4 x i8], ptr, i64, i32, [4 x i8], ptr, i32, i32, i8, i8, [6 x i8] }>
%struct.jvmtiCapabilities = type { i64, i64 }
%struct.jvmtiEventCallbacks = type { ptr, ptr, ptr, ptr, ptr, ptr, ptr, ptr, ptr, ptr, ptr, ptr, ptr, ptr, ptr, ptr, ptr, ptr, ptr, ptr, ptr, ptr, ptr, ptr, ptr, ptr, ptr, ptr, ptr, ptr, ptr, ptr, ptr, ptr, ptr, ptr, ptr, ptr, ptr }
%struct.EventInfo = type { i32, ptr, i8, ptr, ptr, i64, ptr, %union.anon }
%union.anon = type { %struct.anon.0 }
%struct.anon.0 = type { ptr, ptr, i8, %union.jvalue }
%union.jvalue = type { i64 }

@stderr = external global ptr, align 8
@.str = private unnamed_addr constant [17 x i8] c"JDWP exit error \00", align 1
@.str.1 = private unnamed_addr constant [2 x i8] c"\0A\00", align 1
@.str.2 = private unnamed_addr constant [19 x i8] c"%s(%d): %s [%s:%d]\00", align 1
@.str.3 = private unnamed_addr constant [21 x i8] c"getting step request\00", align 1
@.str.4 = private unnamed_addr constant [54 x i8] c"src/jdk.jdwp.agent/share/native/libjdwp/stepControl.c\00", align 1
@gdata = external global ptr, align 8
@.str.5 = private unnamed_addr constant [5 x i8] c"STEP\00", align 1
@stepLock = internal global ptr null, align 8
@.str.49 = private unnamed_addr constant [57 x i8] c"handleExceptionCatchEvent: fromDepth=%d, currentDepth=%d\00", align 1

; Function Attrs: nounwind uwtable
define hidden void @stepControl_unlock() #0 {
  %1 = load ptr, ptr @stepLock, align 8
  call void @debugMonitorExit(ptr noundef %1)
  ret void
}

; Function Attrs: nounwind uwtable
define hidden void @stepControl_lock() #0 {
  %1 = load ptr, ptr @stepLock, align 8
  call void @debugMonitorEnter(ptr noundef %1)
  ret void
}

; Function Attrs: nounwind uwtable
define internal void @handleExceptionCatchEvent(ptr noundef %0, ptr noundef %1, ptr noundef %2, ptr noundef %3) #0 {
  %5 = alloca ptr, align 8
  %6 = alloca ptr, align 8
  %7 = alloca ptr, align 8
  %8 = alloca ptr, align 8
  %9 = alloca ptr, align 8
  %10 = alloca ptr, align 8
  %11 = alloca i32, align 4
  %12 = alloca i32, align 4
  store ptr %0, ptr %5, align 8
  store ptr %1, ptr %6, align 8
  store ptr %2, ptr %7, align 8
  store ptr %3, ptr %8, align 8
  %13 = load ptr, ptr %6, align 8
  %14 = getelementptr inbounds %struct.EventInfo, ptr %13, i32 0, i32 1
  %15 = load ptr, ptr %14, align 8
  store ptr %15, ptr %10, align 8
  call void @stepControl_lock()
  %16 = load ptr, ptr %10, align 8
  %17 = call ptr @threadControl_getStepRequest(ptr noundef %16)
  store ptr %17, ptr %9, align 8
  %18 = load ptr, ptr %9, align 8
  %19 = icmp eq ptr %18, null
  br i1 %19, label %20, label %23

20:                                               ; preds = %4
  %21 = load ptr, ptr @stderr, align 8
  %22 = call ptr @jvmtiErrorText(i32 noundef 203)
  call void (ptr, ptr, ptr, ptr, ...) @print_message(ptr noundef %21, ptr noundef @.str, ptr noundef @.str.1, ptr noundef @.str.2, ptr noundef %22, i32 noundef 203, ptr noundef @.str.3, ptr noundef @.str.4, i32 noundef 378)
  call void @debugInit_exit(i32 noundef 203, ptr noundef @.str.3)
  br label %23

23:                                               ; preds = %20, %4
  %24 = load ptr, ptr %9, align 8
  %25 = getelementptr inbounds %struct.StepRequest, ptr %24, i32 0, i32 2
  %26 = load i8, ptr %25, align 8
  %27 = icmp ne i8 %26, 0
  br i1 %27, label %28, label %92

28:                                               ; preds = %23
  %29 = load ptr, ptr %10, align 8
  %30 = call i32 @getFrameCount(ptr noundef %29)
  store i32 %30, ptr %11, align 4
  %31 = load ptr, ptr %9, align 8
  %32 = getelementptr inbounds %struct.StepRequest, ptr %31, i32 0, i32 5
  %33 = load i32, ptr %32, align 4
  store i32 %33, ptr %12, align 4
  %34 = load ptr, ptr @gdata, align 8
  %35 = getelementptr inbounds %struct.BackendGlobalData, ptr %34, i32 0, i32 38
  %36 = load i32, ptr %35, align 8
  %37 = and i32 %36, 16
  %38 = icmp ne i32 %37, 0
  br i1 %38, label %39, label %42

39:                                               ; preds = %28
  call void @log_message_begin(ptr noundef @.str.5, ptr noundef @.str.4, i32 noundef 390)
  %40 = load i32, ptr %12, align 4
  %41 = load i32, ptr %11, align 4
  call void (ptr, ...) @log_message_end(ptr noundef @.str.49, i32 noundef %40, i32 noundef %41)
  br label %43

42:                                               ; preds = %28
  br label %43

43:                                               ; preds = %42, %39
  %44 = load i32, ptr %12, align 4
  %45 = load i32, ptr %11, align 4
  %46 = icmp sgt i32 %44, %45
  br i1 %46, label %47, label %50

47:                                               ; preds = %43
  %48 = load ptr, ptr %9, align 8
  %49 = getelementptr inbounds %struct.StepRequest, ptr %48, i32 0, i32 3
  store i8 1, ptr %49, align 1
  br label %50

50:                                               ; preds = %47, %43
  %51 = load ptr, ptr %9, align 8
  %52 = getelementptr inbounds %struct.StepRequest, ptr %51, i32 0, i32 1
  %53 = load i32, ptr %52, align 4
  %54 = icmp eq i32 %53, 1
  br i1 %54, label %55, label %61

55:                                               ; preds = %50
  %56 = load i32, ptr %12, align 4
  %57 = load i32, ptr %11, align 4
  %58 = icmp sge i32 %56, %57
  br i1 %58, label %59, label %61

59:                                               ; preds = %55
  %60 = load ptr, ptr %10, align 8
  call void @enableStepping(ptr noundef %60)
  br label %91

61:                                               ; preds = %55, %50
  %62 = load ptr, ptr %9, align 8
  %63 = getelementptr inbounds %struct.StepRequest, ptr %62, i32 0, i32 1
  %64 = load i32, ptr %63, align 4
  %65 = icmp eq i32 %64, 2
  br i1 %65, label %66, label %72

66:                                               ; preds = %61
  %67 = load i32, ptr %12, align 4
  %68 = load i32, ptr %11, align 4
  %69 = icmp sgt i32 %67, %68
  br i1 %69, label %70, label %72

70:                                               ; preds = %66
  %71 = load ptr, ptr %10, align 8
  call void @enableStepping(ptr noundef %71)
  br label %90

72:                                               ; preds = %66, %61
  %73 = load ptr, ptr %9, align 8
  %74 = getelementptr inbounds %struct.StepRequest, ptr %73, i32 0, i32 13
  %75 = load ptr, ptr %74, align 8
  %76 = icmp ne ptr %75, null
  br i1 %76, label %77, label %89

77:                                               ; preds = %72
  %78 = load i32, ptr %12, align 4
  %79 = load i32, ptr %11, align 4
  %80 = icmp sge i32 %78, %79
  br i1 %80, label %81, label %89

81:                                               ; preds = %77
  %82 = load ptr, ptr %10, align 8
  call void @enableStepping(ptr noundef %82)
  %83 = load ptr, ptr %9, align 8
  %84 = getelementptr inbounds %struct.StepRequest, ptr %83, i32 0, i32 13
  %85 = load ptr, ptr %84, align 8
  %86 = call i32 @eventHandler_free(ptr noundef %85)
  %87 = load ptr, ptr %9, align 8
  %88 = getelementptr inbounds %struct.StepRequest, ptr %87, i32 0, i32 13
  store ptr null, ptr %88, align 8
  br label %89

89:                                               ; preds = %81, %77, %72
  br label %90

90:                                               ; preds = %89, %70
  br label %91

91:                                               ; preds = %90, %59
  br label %92

92:                                               ; preds = %91, %23
  call void @stepControl_unlock()
  ret void
}