; Function Attrs: nounwind uwtable
define internal void @handleExceptionCatchEvent(ptr nocapture readnone %0, ptr nocapture noundef readonly %1, ptr nocapture readnone %2, ptr nocapture readnone %3) #0 {
  %5 = getelementptr inbounds i8, ptr %1, i64 8
  %6 = load ptr, ptr %5, align 8
  %7 = load ptr, ptr @stepLock, align 8
  tail call void @debugMonitorEnter(ptr noundef %7) #4
  %8 = tail call ptr @threadControl_getStepRequest(ptr noundef %6) #4
  %9 = icmp eq ptr %8, null
  br i1 %9, label %10, label %13

10:                                               ; preds = %4
  %11 = load ptr, ptr @stderr, align 8
  %12 = tail call ptr @jvmtiErrorText(i32 noundef 203) #4
  tail call void (ptr, ptr, ptr, ptr, ...) @print_message(ptr noundef %11, ptr noundef nonnull @.str, ptr noundef nonnull @.str.1, ptr noundef nonnull @.str.2, ptr noundef %12, i32 noundef 203, ptr noundef nonnull @.str.3, ptr noundef nonnull @.str.4, i32 noundef 378) #4
  tail call void @debugInit_exit(i32 noundef 203, ptr noundef nonnull @.str.3) #4
  br label %13

13:                                               ; preds = %10, %4
  %14 = getelementptr inbounds i8, ptr %8, i64 8
  %15 = load i8, ptr %14, align 8
  %.not = icmp eq i8 %15, 0
  br i1 %.not, label %43, label %16

16:                                               ; preds = %13
  %17 = tail call fastcc i32 @getFrameCount(ptr noundef %6)
  %18 = getelementptr inbounds i8, ptr %8, i64 12
  %19 = load i32, ptr %18, align 4
  %20 = load ptr, ptr @gdata, align 8
  %21 = getelementptr inbounds i8, ptr %20, i64 528
  %22 = load i32, ptr %21, align 8
  %23 = and i32 %22, 16
  %.not24 = icmp eq i32 %23, 0
  br i1 %.not24, label %25, label %24

24:                                               ; preds = %16
  tail call void @log_message_begin(ptr noundef nonnull @.str.5, ptr noundef nonnull @.str.4, i32 noundef 390) #4
  tail call void (ptr, ...) @log_message_end(ptr noundef nonnull @.str.49, i32 noundef %19, i32 noundef %17) #4
  br label %25

25:                                               ; preds = %16, %24
  %26 = icmp sle i32 %19, %17
  br i1 %26, label %29, label %27

27:                                               ; preds = %25
  %28 = getelementptr inbounds i8, ptr %8, i64 9
  store i8 1, ptr %28, align 1
  br label %29

29:                                               ; preds = %27, %25
  %30 = getelementptr inbounds i8, ptr %8, i64 4
  %31 = load i32, ptr %30, align 4
  %32 = icmp ne i32 %31, 1
  %.not25 = icmp slt i32 %19, %17
  %or.cond = select i1 %32, i1 true, i1 %.not25
  br i1 %or.cond, label %34, label %33

33:                                               ; preds = %29
  tail call fastcc void @enableStepping(ptr noundef %6)
  br label %43

34:                                               ; preds = %29
  %35 = icmp ne i32 %31, 2
  %brmerge = or i1 %26, %35
  br i1 %brmerge, label %37, label %36

36:                                               ; preds = %34
  tail call fastcc void @enableStepping(ptr noundef %6)
  br label %43

37:                                               ; preds = %34
  %38 = getelementptr inbounds i8, ptr %8, i64 72
  %39 = load ptr, ptr %38, align 8
  %.not26 = icmp eq ptr %39, null
  %or.cond30 = select i1 %.not26, i1 true, i1 %.not25
  br i1 %or.cond30, label %43, label %40

40:                                               ; preds = %37
  tail call fastcc void @enableStepping(ptr noundef %6)
  %41 = load ptr, ptr %38, align 8
  %42 = tail call i32 @eventHandler_free(ptr noundef %41) #4
  store ptr null, ptr %38, align 8
  br label %43

43:                                               ; preds = %33, %37, %40, %36, %13
  %44 = load ptr, ptr @stepLock, align 8
  tail call void @debugMonitorExit(ptr noundef %44) #4
  ret void
}